target datalayout = "e-m:e-p270:32:32-p271:32:32-p272:64:64-i64:64-i128:128-f80:128-n8:16:32:64-S128"
target triple = "x86_64-pc-linux-gnu"

%"class.tl::expected" = type { %"struct.tl::detail::expected_move_assign_base.base", [3 x i8] }
%"struct.tl::detail::expected_move_assign_base.base" = type { %"struct.tl::detail::expected_copy_assign_base.base" }
%"struct.tl::detail::expected_copy_assign_base.base" = type { %"struct.tl::detail::expected_move_base.base" }
%"struct.tl::detail::expected_move_base.base" = type { %"struct.tl::detail::expected_copy_base.base" }
%"struct.tl::detail::expected_copy_base.base" = type { %"struct.tl::detail::expected_operations_base.base" }
%"struct.tl::detail::expected_operations_base.base" = type { %"struct.tl::detail::expected_storage_base.base" }
%"struct.tl::detail::expected_storage_base.base" = type <{ %union.anon.38, i8 }>
%union.anon.38 = type { %"class.tl::unexpected" }
%"class.tl::unexpected" = type { i32 }
%"class.LIEF::ASN1Reader" = type { ptr }
%"struct.tl::detail::expected_storage_base" = type <{ %union.anon.38, i8, [3 x i8] }>

; Function Attrs: mustprogress nounwind uwtable
define linkonce_odr hidden void @_ZN2tl6detail21expected_storage_baseIb11lief_errorsLb1ELb1EEC2IJbETnPNSt9enable_ifIXsr3std16is_constructibleIbDpOT_EE5valueEvE4typeELPv0EEENS_10in_place_tES8_(ptr noundef nonnull align 4 dereferenceable(5) %0, ptr noundef nonnull align 1 dereferenceable(1) %1) unnamed_addr #0 comdat align 2 {
  %3 = alloca ptr, align 8
  %4 = alloca ptr, align 8
  store ptr %0, ptr %3, align 8, !tbaa !138
  store ptr %1, ptr %4, align 8, !tbaa !32
  %5 = load ptr, ptr %3, align 8
  %6 = getelementptr inbounds nuw %"struct.tl::detail::expected_storage_base", ptr %5, i32 0, i32 0
  %7 = load ptr, ptr %4, align 8, !tbaa !32
  %8 = load i8, ptr %7, align 1, !tbaa !24, !range !62, !noundef !63
  %9 = trunc i8 %8 to i1
  %10 = zext i1 %9 to i8
  store i8 %10, ptr %6, align 4, !tbaa !10
  %11 = getelementptr inbounds nuw %"struct.tl::detail::expected_storage_base", ptr %5, i32 0, i32 1
  store i8 1, ptr %11, align 4, !tbaa !140
  ret void
}

; Function Attrs: mustprogress nounwind uwtable
define linkonce_odr hidden void @_ZN2tl10unexpectedI11lief_errorsEC2EOS1_(ptr noundef nonnull align 4 dereferenceable(4) %0, ptr noundef nonnull align 4 dereferenceable(4) %1) unnamed_addr #0 comdat align 2 {
  %3 = alloca ptr, align 8
  %4 = alloca ptr, align 8
  store ptr %0, ptr %3, align 8, !tbaa !30
  store ptr %1, ptr %4, align 8, !tbaa !123
  %5 = load ptr, ptr %3, align 8
  %6 = getelementptr inbounds nuw %"class.tl::unexpected", ptr %5, i32 0, i32 0
  %7 = load ptr, ptr %4, align 8, !tbaa !123
  %8 = load i32, ptr %7, align 4, !tbaa !26
  store i32 %8, ptr %6, align 4, !tbaa !124
  ret void
}

; Function Attrs: inlinehint mustprogress nounwind uwtable
define linkonce_odr hidden void @_ZN2tl6detail24expected_operations_baseIb11lief_errorsECI2NS0_21expected_storage_baseIbS2_Lb1ELb1EEEIJbETnPNSt9enable_ifIXsr3std16is_constructibleIbDpOT_EE5valueEvE4typeELPv0EEENS_10in_place_tES8_(ptr noundef nonnull align 4 dereferenceable(5) %0, ptr noundef nonnull align 1 dereferenceable(1) %1) unnamed_addr #3 comdat align 2 {
  %3 = alloca ptr, align 8
  %4 = alloca ptr, align 8
  store ptr %0, ptr %3, align 8, !tbaa !136
  store ptr %1, ptr %4, align 8, !tbaa !32
  %5 = load ptr, ptr %3, align 8
  %6 = load ptr, ptr %4, align 8
  call void @_ZN2tl6detail21expected_storage_baseIb11lief_errorsLb1ELb1EEC2IJbETnPNSt9enable_ifIXsr3std16is_constructibleIbDpOT_EE5valueEvE4typeELPv0EEENS_10in_place_tES8_(ptr noundef nonnull align 4 dereferenceable(5) %5, ptr noundef nonnull align 1 dereferenceable(1) %6)
  ret void
}

; Function Attrs: mustprogress nounwind uwtable
define linkonce_odr hidden void @_ZN2tl6detail21expected_storage_baseIb11lief_errorsLb1ELb1EEC2IJS2_ETnPNSt9enable_ifIXsr3std16is_constructibleIS2_DpOT_EE5valueEvE4typeELPv0EEENS_10unexpect_tES8_(ptr noundef nonnull align 4 dereferenceable(5) %0, ptr noundef nonnull align 4 dereferenceable(4) %1) unnamed_addr #0 comdat align 2 {
  %3 = alloca ptr, align 8
  %4 = alloca ptr, align 8
  store ptr %0, ptr %3, align 8, !tbaa !138
  store ptr %1, ptr %4, align 8, !tbaa !123
  %5 = load ptr, ptr %3, align 8
  %6 = getelementptr inbounds nuw %"struct.tl::detail::expected_storage_base", ptr %5, i32 0, i32 0
  %7 = load ptr, ptr %4, align 8, !tbaa !123
  call void @_ZN2tl10unexpectedI11lief_errorsEC2EOS1_(ptr noundef nonnull align 4 dereferenceable(4) %6, ptr noundef nonnull align 4 dereferenceable(4) %7)
  %8 = getelementptr inbounds nuw %"struct.tl::detail::expected_storage_base", ptr %5, i32 0, i32 1
  store i8 0, ptr %8, align 4, !tbaa !140
  ret void
}

; Function Attrs: inlinehint mustprogress nounwind uwtable
define linkonce_odr hidden void @_ZN2tl6detail18expected_copy_baseIb11lief_errorsLb1EECI2NS0_21expected_storage_baseIbS2_Lb1ELb1EEEIJbETnPNSt9enable_ifIXsr3std16is_constructibleIbDpOT_EE5valueEvE4typeELPv0EEENS_10in_place_tES8_(ptr noundef nonnull align 4 dereferenceable(5) %0, ptr noundef nonnull align 1 dereferenceable(1) %1) unnamed_addr #3 comdat align 2 {
  %3 = alloca ptr, align 8
  %4 = alloca ptr, align 8
  store ptr %0, ptr %3, align 8, !tbaa !134
  store ptr %1, ptr %4, align 8, !tbaa !32
  %5 = load ptr, ptr %3, align 8
  %6 = load ptr, ptr %4, align 8
  call void @_ZN2tl6detail24expected_operations_baseIb11lief_errorsECI2NS0_21expected_storage_baseIbS2_Lb1ELb1EEEIJbETnPNSt9enable_ifIXsr3std16is_constructibleIbDpOT_EE5valueEvE4typeELPv0EEENS_10in_place_tES8_(ptr noundef nonnull align 4 dereferenceable(5) %5, ptr noundef nonnull align 1 dereferenceable(1) %6)
  ret void
}

; Function Attrs: inlinehint mustprogress nounwind uwtable
define linkonce_odr hidden void @_ZN2tl6detail24expected_operations_baseIb11lief_errorsECI2NS0_21expected_storage_baseIbS2_Lb1ELb1EEEIJS2_ETnPNSt9enable_ifIXsr3std16is_constructibleIS2_DpOT_EE5valueEvE4typeELPv0EEENS_10unexpect_tES8_(ptr noundef nonnull align 4 dereferenceable(5) %0, ptr noundef nonnull align 4 dereferenceable(4) %1) unnamed_addr #3 comdat align 2 {
  %3 = alloca ptr, align 8
  %4 = alloca ptr, align 8
  store ptr %0, ptr %3, align 8, !tbaa !136
  store ptr %1, ptr %4, align 8, !tbaa !123
  %5 = load ptr, ptr %3, align 8
  %6 = load ptr, ptr %4, align 8
  call void @_ZN2tl6detail21expected_storage_baseIb11lief_errorsLb1ELb1EEC2IJS2_ETnPNSt9enable_ifIXsr3std16is_constructibleIS2_DpOT_EE5valueEvE4typeELPv0EEENS_10unexpect_tES8_(ptr noundef nonnull align 4 dereferenceable(5) %5, ptr noundef nonnull align 4 dereferenceable(4) %6)
  ret void
}

; Function Attrs: inlinehint mustprogress nounwind uwtable
define linkonce_odr hidden void @_ZN2tl6detail18expected_move_baseIb11lief_errorsLb1EECI2NS0_21expected_storage_baseIbS2_Lb1ELb1EEEIJbETnPNSt9enable_ifIXsr3std16is_constructibleIbDpOT_EE5valueEvE4typeELPv0EEENS_10in_place_tES8_(ptr noundef nonnull align 4 dereferenceable(5) %0, ptr noundef nonnull align 1 dereferenceable(1) %1) unnamed_addr #3 comdat align 2 {
  %3 = alloca ptr, align 8
  %4 = alloca ptr, align 8
  store ptr %0, ptr %3, align 8, !tbaa !132
  store ptr %1, ptr %4, align 8, !tbaa !32
  %5 = load ptr, ptr %3, align 8
  %6 = load ptr, ptr %4, align 8
  call void @_ZN2tl6detail18expected_copy_baseIb11lief_errorsLb1EECI2NS0_21expected_storage_baseIbS2_Lb1ELb1EEEIJbETnPNSt9enable_ifIXsr3std16is_constructibleIbDpOT_EE5valueEvE4typeELPv0EEENS_10in_place_tES8_(ptr noundef nonnull align 4 dereferenceable(5) %5, ptr noundef nonnull align 1 dereferenceable(1) %6)
  ret void
}

; Function Attrs: inlinehint mustprogress nounwind uwtable
define linkonce_odr hidden void @_ZN2tl6detail18expected_copy_baseIb11lief_errorsLb1EECI2NS0_21expected_storage_baseIbS2_Lb1ELb1EEEIJS2_ETnPNSt9enable_ifIXsr3std16is_constructibleIS2_DpOT_EE5valueEvE4typeELPv0EEENS_10unexpect_tES8_(ptr noundef nonnull align 4 dereferenceable(5) %0, ptr noundef nonnull align 4 dereferenceable(4) %1) unnamed_addr #3 comdat align 2 {
  %3 = alloca ptr, align 8
  %4 = alloca ptr, align 8
  store ptr %0, ptr %3, align 8, !tbaa !134
  store ptr %1, ptr %4, align 8, !tbaa !123
  %5 = load ptr, ptr %3, align 8
  %6 = load ptr, ptr %4, align 8
  call void @_ZN2tl6detail24expected_operations_baseIb11lief_errorsECI2NS0_21expected_storage_baseIbS2_Lb1ELb1EEEIJS2_ETnPNSt9enable_ifIXsr3std16is_constructibleIS2_DpOT_EE5valueEvE4typeELPv0EEENS_10unexpect_tES8_(ptr noundef nonnull align 4 dereferenceable(5) %5, ptr noundef nonnull align 4 dereferenceable(4) %6)
  ret void
}

; Function Attrs: inlinehint mustprogress nounwind uwtable
define linkonce_odr hidden void @_ZN2tl6detail25expected_copy_assign_baseIb11lief_errorsLb1EECI2NS0_21expected_storage_baseIbS2_Lb1ELb1EEEIJbETnPNSt9enable_ifIXsr3std16is_constructibleIbDpOT_EE5valueEvE4typeELPv0EEENS_10in_place_tES8_(ptr noundef nonnull align 4 dereferenceable(5) %0, ptr noundef nonnull align 1 dereferenceable(1) %1) unnamed_addr #3 comdat align 2 {
  %3 = alloca ptr, align 8
  %4 = alloca ptr, align 8
  store ptr %0, ptr %3, align 8, !tbaa !130
  store ptr %1, ptr %4, align 8, !tbaa !32
  %5 = load ptr, ptr %3, align 8
  %6 = load ptr, ptr %4, align 8
  call void @_ZN2tl6detail18expected_move_baseIb11lief_errorsLb1EECI2NS0_21expected_storage_baseIbS2_Lb1ELb1EEEIJbETnPNSt9enable_ifIXsr3std16is_constructibleIbDpOT_EE5valueEvE4typeELPv0EEENS_10in_place_tES8_(ptr noundef nonnull align 4 dereferenceable(5) %5, ptr noundef nonnull align 1 dereferenceable(1) %6)
  ret void
}

; Function Attrs: inlinehint mustprogress nounwind uwtable
define linkonce_odr hidden void @_ZN2tl6detail18expected_move_baseIb11lief_errorsLb1EECI2NS0_21expected_storage_baseIbS2_Lb1ELb1EEEIJS2_ETnPNSt9enable_ifIXsr3std16is_constructibleIS2_DpOT_EE5valueEvE4typeELPv0EEENS_10unexpect_tES8_(ptr noundef nonnull align 4 dereferenceable(5) %0, ptr noundef nonnull align 4 dereferenceable(4) %1) unnamed_addr #3 comdat align 2 {
  %3 = alloca ptr, align 8
  %4 = alloca ptr, align 8
  store ptr %0, ptr %3, align 8, !tbaa !132
  store ptr %1, ptr %4, align 8, !tbaa !123
  %5 = load ptr, ptr %3, align 8
  %6 = load ptr, ptr %4, align 8
  call void @_ZN2tl6detail18expected_copy_baseIb11lief_errorsLb1EECI2NS0_21expected_storage_baseIbS2_Lb1ELb1EEEIJS2_ETnPNSt9enable_ifIXsr3std16is_constructibleIS2_DpOT_EE5valueEvE4typeELPv0EEENS_10unexpect_tES8_(ptr noundef nonnull align 4 dereferenceable(5) %5, ptr noundef nonnull align 4 dereferenceable(4) %6)
  ret void
}

; Function Attrs: inlinehint mustprogress nounwind uwtable
define linkonce_odr hidden void @_ZN2tl6detail25expected_move_assign_baseIb11lief_errorsLb1EECI2NS0_21expected_storage_baseIbS2_Lb1ELb1EEEIJbETnPNSt9enable_ifIXsr3std16is_constructibleIbDpOT_EE5valueEvE4typeELPv0EEENS_10in_place_tES8_(ptr noundef nonnull align 4 dereferenceable(5) %0, ptr noundef nonnull align 1 dereferenceable(1) %1) unnamed_addr #3 comdat align 2 {
  %3 = alloca ptr, align 8
  %4 = alloca ptr, align 8
  store ptr %0, ptr %3, align 8, !tbaa !126
  store ptr %1, ptr %4, align 8, !tbaa !32
  %5 = load ptr, ptr %3, align 8
  %6 = load ptr, ptr %4, align 8
  call void @_ZN2tl6detail25expected_copy_assign_baseIb11lief_errorsLb1EECI2NS0_21expected_storage_baseIbS2_Lb1ELb1EEEIJbETnPNSt9enable_ifIXsr3std16is_constructibleIbDpOT_EE5valueEvE4typeELPv0EEENS_10in_place_tES8_(ptr noundef nonnull align 4 dereferenceable(5) %5, ptr noundef nonnull align 1 dereferenceable(1) %6)
  ret void
}

; Function Attrs: inlinehint mustprogress nounwind uwtable
define linkonce_odr hidden void @_ZN2tl6detail25expected_copy_assign_baseIb11lief_errorsLb1EECI2NS0_21expected_storage_baseIbS2_Lb1ELb1EEEIJS2_ETnPNSt9enable_ifIXsr3std16is_constructibleIS2_DpOT_EE5valueEvE4typeELPv0EEENS_10unexpect_tES8_(ptr noundef nonnull align 4 dereferenceable(5) %0, ptr noundef nonnull align 4 dereferenceable(4) %1) unnamed_addr #3 comdat align 2 {
  %3 = alloca ptr, align 8
  %4 = alloca ptr, align 8
  store ptr %0, ptr %3, align 8, !tbaa !130
  store ptr %1, ptr %4, align 8, !tbaa !123
  %5 = load ptr, ptr %3, align 8
  %6 = load ptr, ptr %4, align 8
  call void @_ZN2tl6detail18expected_move_baseIb11lief_errorsLb1EECI2NS0_21expected_storage_baseIbS2_Lb1ELb1EEEIJS2_ETnPNSt9enable_ifIXsr3std16is_constructibleIS2_DpOT_EE5valueEvE4typeELPv0EEENS_10unexpect_tES8_(ptr noundef nonnull align 4 dereferenceable(5) %5, ptr noundef nonnull align 4 dereferenceable(4) %6)
  ret void
}

; Function Attrs: mustprogress nounwind uwtable
define linkonce_odr hidden void @_ZN2tl10unexpectedI11lief_errorsEC2IJRS1_ETnPNSt9enable_ifIXsr3std16is_constructibleIS1_DpOT_EE5valueEvE4typeELPv0EEES8_(ptr noundef nonnull align 4 dereferenceable(4) %0, ptr noundef nonnull align 4 dereferenceable(4) %1) unnamed_addr #0 comdat align 2 {
  %3 = alloca ptr, align 8
  %4 = alloca ptr, align 8
  store ptr %0, ptr %3, align 8, !tbaa !30
  store ptr %1, ptr %4, align 8, !tbaa !123
  %5 = load ptr, ptr %3, align 8
  %6 = getelementptr inbounds nuw %"class.tl::unexpected", ptr %5, i32 0, i32 0
  %7 = load ptr, ptr %4, align 8, !tbaa !123
  %8 = load i32, ptr %7, align 4, !tbaa !26
  store i32 %8, ptr %6, align 4, !tbaa !124
  ret void
}

; Function Attrs: mustprogress nounwind uwtable
define linkonce_odr hidden void @_ZN2tl8expectedIb11lief_errorsEC2IJbETnPNSt9enable_ifIXsr3std16is_constructibleIbDpOT_EE5valueEvE4typeELPv0EEENS_10in_place_tES7_(ptr noundef nonnull align 4 dereferenceable(5) %0, ptr noundef nonnull align 1 dereferenceable(1) %1) unnamed_addr #0 comdat align 2 {
  %3 = alloca ptr, align 8
  %4 = alloca ptr, align 8
  store ptr %0, ptr %3, align 8, !tbaa !28
  store ptr %1, ptr %4, align 8, !tbaa !32
  %5 = load ptr, ptr %3, align 8
  %6 = load ptr, ptr %4, align 8, !tbaa !32
  call void @_ZN2tl6detail25expected_move_assign_baseIb11lief_errorsLb1EECI2NS0_21expected_storage_baseIbS2_Lb1ELb1EEEIJbETnPNSt9enable_ifIXsr3std16is_constructibleIbDpOT_EE5valueEvE4typeELPv0EEENS_10in_place_tES8_(ptr noundef nonnull align 4 dereferenceable(5) %5, ptr noundef nonnull align 1 dereferenceable(1) %6)
  call void @_ZN2tl6detail26expected_default_ctor_baseIb11lief_errorsLb1EEC2ENS0_23default_constructor_tagE(ptr noundef nonnull align 1 dereferenceable(1) %5)
  ret void
}

; Function Attrs: mustprogress nounwind uwtable
define linkonce_odr hidden void @_ZN2tl6detail26expected_default_ctor_baseIb11lief_errorsLb1EEC2ENS0_23default_constructor_tagE(ptr noundef nonnull align 1 dereferenceable(1) %0) unnamed_addr #0 comdat align 2 {
  %2 = alloca ptr, align 8
  store ptr %0, ptr %2, align 8, !tbaa !128
  ret void
}

; Function Attrs: inlinehint mustprogress nounwind uwtable
define linkonce_odr hidden void @_ZN2tl6detail25expected_move_assign_baseIb11lief_errorsLb1EECI2NS0_21expected_storage_baseIbS2_Lb1ELb1EEEIJS2_ETnPNSt9enable_ifIXsr3std16is_constructibleIS2_DpOT_EE5valueEvE4typeELPv0EEENS_10unexpect_tES8_(ptr noundef nonnull align 4 dereferenceable(5) %0, ptr noundef nonnull align 4 dereferenceable(4) %1) unnamed_addr #3 comdat align 2 {
  %3 = alloca ptr, align 8
  %4 = alloca ptr, align 8
  store ptr %0, ptr %3, align 8, !tbaa !126
  store ptr %1, ptr %4, align 8, !tbaa !123
  %5 = load ptr, ptr %3, align 8
  %6 = load ptr, ptr %4, align 8
  call void @_ZN2tl6detail25expected_copy_assign_baseIb11lief_errorsLb1EECI2NS0_21expected_storage_baseIbS2_Lb1ELb1EEEIJS2_ETnPNSt9enable_ifIXsr3std16is_constructibleIS2_DpOT_EE5valueEvE4typeELPv0EEENS_10unexpect_tES8_(ptr noundef nonnull align 4 dereferenceable(5) %5, ptr noundef nonnull align 4 dereferenceable(4) %6)
  ret void
}

; Function Attrs: mustprogress nounwind uwtable
define linkonce_odr hidden noundef nonnull align 4 dereferenceable(4) ptr @_ZNR2tl10unexpectedI11lief_errorsE5valueEv(ptr noundef nonnull align 4 dereferenceable(4) %0) #0 comdat align 2 {
  %2 = alloca ptr, align 8
  store ptr %0, ptr %2, align 8, !tbaa !30
  %3 = load ptr, ptr %2, align 8
  %4 = getelementptr inbounds nuw %"class.tl::unexpected", ptr %3, i32 0, i32 0
  ret ptr %4
}

; Function Attrs: mustprogress nounwind uwtable
define linkonce_odr hidden i32 @_ZN2tl15make_unexpectedIR11lief_errorsEENS_10unexpectedINSt5decayIT_E4typeEEEOS5_(ptr noundef nonnull align 4 dereferenceable(4) %0) #0 comdat {
  %2 = alloca %"class.tl::unexpected", align 4
  %3 = alloca ptr, align 8
  store ptr %0, ptr %3, align 8, !tbaa !123
  %4 = load ptr, ptr %3, align 8, !tbaa !123
  call void @_ZN2tl10unexpectedI11lief_errorsEC2IJRS1_ETnPNSt9enable_ifIXsr3std16is_constructibleIS1_DpOT_EE5valueEvE4typeELPv0EEES8_(ptr noundef nonnull align 4 dereferenceable(4) %2, ptr noundef nonnull align 4 dereferenceable(4) %4)
  %5 = getelementptr inbounds nuw %"class.tl::unexpected", ptr %2, i32 0, i32 0
  %6 = load i32, ptr %5, align 4
  ret i32 %6
}

; Function Attrs: mustprogress nounwind uwtable
define linkonce_odr hidden void @_ZN2tl8expectedIb11lief_errorsEC2IbTnPNSt9enable_ifIXsr3std14is_convertibleIOT_bEE5valueEvE4typeELPv0ETnPNS4_IXaaaaaasr3std16is_constructibleIbS6_EE5valuentsr3std7is_sameINSt5decayIS5_E4typeENS_10in_place_tEEE5valuentsr3std7is_sameIS2_SD_EE5valuentsr3std7is_sameINS_10unexpectedIS1_EESD_EE5valueEvE4typeELSA_0EEES6_(ptr noundef nonnull align 4 dereferenceable(5) %0, ptr noundef nonnull align 1 dereferenceable(1) %1) unnamed_addr #0 comdat align 2 {
  %3 = alloca ptr, align 8
  %4 = alloca ptr, align 8
  store ptr %0, ptr %3, align 8, !tbaa !28
  store ptr %1, ptr %4, align 8, !tbaa !32
  %5 = load ptr, ptr %3, align 8
  %6 = load ptr, ptr %4, align 8, !tbaa !32
  call void @_ZN2tl8expectedIb11lief_errorsEC2IJbETnPNSt9enable_ifIXsr3std16is_constructibleIbDpOT_EE5valueEvE4typeELPv0EEENS_10in_place_tES7_(ptr noundef nonnull align 4 dereferenceable(5) %5, ptr noundef nonnull align 1 dereferenceable(1) %6)
  ret void
}

; Function Attrs: mustprogress nounwind uwtable
define linkonce_odr hidden void @_ZN2tl8expectedIb11lief_errorsEC2IS1_TnPNSt9enable_ifIXsr3std16is_constructibleIS1_OT_EE5valueEvE4typeELPv0ETnPNS4_IXsr3std14is_convertibleIS6_S1_EE5valueEvE4typeELSA_0EEEONS_10unexpectedIS5_EE(ptr noundef nonnull align 4 dereferenceable(5) %0, ptr noundef nonnull align 4 dereferenceable(4) %1) unnamed_addr #0 comdat align 2 {
  %3 = alloca ptr, align 8
  %4 = alloca ptr, align 8
  store ptr %0, ptr %3, align 8, !tbaa !28
  store ptr %1, ptr %4, align 8, !tbaa !30
  %5 = load ptr, ptr %3, align 8
  %6 = load ptr, ptr %4, align 8, !tbaa !30
  %7 = call noundef nonnull align 4 dereferenceable(4) ptr @_ZNR2tl10unexpectedI11lief_errorsE5valueEv(ptr noundef nonnull align 4 dereferenceable(4) %6)
  call void @_ZN2tl6detail25expected_move_assign_baseIb11lief_errorsLb1EECI2NS0_21expected_storage_baseIbS2_Lb1ELb1EEEIJS2_ETnPNSt9enable_ifIXsr3std16is_constructibleIS2_DpOT_EE5valueEvE4typeELPv0EEENS_10unexpect_tES8_(ptr noundef nonnull align 4 dereferenceable(5) %5, ptr noundef nonnull align 4 dereferenceable(4) %7)
  call void @_ZN2tl6detail26expected_default_ctor_baseIb11lief_errorsLb1EEC2ENS0_23default_constructor_tagE(ptr noundef nonnull align 1 dereferenceable(1) %5)
  ret void
}

; Function Attrs: inlinehint mustprogress nounwind uwtable
define linkonce_odr hidden i32 @_Z15make_error_code11lief_errors(i32 noundef %0) #3 comdat {
  %2 = alloca %"class.tl::unexpected", align 4
  %3 = alloca i32, align 4
  store i32 %0, ptr %3, align 4, !tbaa !26
  %4 = call i32 @_ZN2tl15make_unexpectedIR11lief_errorsEENS_10unexpectedINSt5decayIT_E4typeEEEOS5_(ptr noundef nonnull align 4 dereferenceable(4) %3)
  %5 = getelementptr inbounds nuw %"class.tl::unexpected", ptr %2, i32 0, i32 0
  store i32 %4, ptr %5, align 4
  %6 = getelementptr inbounds nuw %"class.tl::unexpected", ptr %2, i32 0, i32 0
  %7 = load i32, ptr %6, align 4
  ret i32 %7
}

; Function Attrs: mustprogress nounwind uwtable
define hidden i64 @_ZN4LIEF10ASN1Reader6is_tagEi(ptr noundef nonnull align 8 dereferenceable(8) %0, i32 noundef %1) #0 align 2 {
  %3 = alloca %"class.tl::expected", align 4
  %4 = alloca ptr, align 8
  %5 = alloca i32, align 4
  %6 = alloca i64, align 8
  %7 = alloca ptr, align 8
  %8 = alloca ptr, align 8
  %9 = alloca i32, align 4
  %10 = alloca %"class.tl::unexpected", align 4
  %11 = alloca i32, align 4
  %12 = alloca i8, align 1
  %13 = alloca %"class.tl::unexpected", align 4
  %14 = alloca i8, align 1
  store ptr %0, ptr %4, align 8, !tbaa !15
  store i32 %1, ptr %5, align 4, !tbaa !17
  %15 = load ptr, ptr %4, align 8
  call void @llvm.lifetime.start.p0(i64 8, ptr %6) #21
  store i64 0, ptr %6, align 8, !tbaa !13
  call void @llvm.lifetime.start.p0(i64 8, ptr %7) #21
  %16 = getelementptr inbounds nuw %"class.LIEF::ASN1Reader", ptr %15, i32 0, i32 0
  %17 = load ptr, ptr %16, align 8, !tbaa !19
  %18 = load ptr, ptr %17, align 8, !tbaa !22
  %19 = getelementptr inbounds ptr, ptr %18, i64 7
  %20 = load ptr, ptr %19, align 8
  %21 = call noundef ptr %20(ptr noundef nonnull align 8 dereferenceable(24) %17)
  store ptr %21, ptr %7, align 8, !tbaa !11
  call void @llvm.lifetime.start.p0(i64 8, ptr %8) #21
  %22 = getelementptr inbounds nuw %"class.LIEF::ASN1Reader", ptr %15, i32 0, i32 0
  %23 = load ptr, ptr %22, align 8, !tbaa !19
  %24 = load ptr, ptr %23, align 8, !tbaa !22
  %25 = getelementptr inbounds ptr, ptr %24, i64 8
  %26 = load ptr, ptr %25, align 8
  %27 = call noundef ptr %26(ptr noundef nonnull align 8 dereferenceable(24) %23)
  store ptr %27, ptr %8, align 8, !tbaa !11
  call void @llvm.lifetime.start.p0(i64 4, ptr %9) #21
  %28 = load ptr, ptr %8, align 8, !tbaa !11
  %29 = load i32, ptr %5, align 4, !tbaa !17
  %30 = call i32 @mbedtls_asn1_get_tag(ptr noundef %7, ptr noundef %28, ptr noundef %6, i32 noundef %29)
  store i32 %30, ptr %9, align 4, !tbaa !17
  %31 = load i32, ptr %9, align 4, !tbaa !17
  %32 = icmp eq i32 %31, -96
  br i1 %32, label %33, label %36

33:                                               ; preds = %2
  call void @llvm.lifetime.start.p0(i64 4, ptr %10) #21
  %34 = call i32 @_Z15make_error_code11lief_errors(i32 noundef 7)
  %35 = getelementptr inbounds nuw %"class.tl::unexpected", ptr %10, i32 0, i32 0
  store i32 %34, ptr %35, align 4
  call void @_ZN2tl8expectedIb11lief_errorsEC2IS1_TnPNSt9enable_ifIXsr3std16is_constructibleIS1_OT_EE5valueEvE4typeELPv0ETnPNS4_IXsr3std14is_convertibleIS6_S1_EE5valueEvE4typeELSA_0EEEONS_10unexpectedIS5_EE(ptr noundef nonnull align 4 dereferenceable(5) %3, ptr noundef nonnull align 4 dereferenceable(4) %10) #21
  call void @llvm.lifetime.end.p0(i64 4, ptr %10) #21
  store i32 1, ptr %11, align 4
  br label %47

36:                                               ; preds = %2
  %37 = load i32, ptr %9, align 4, !tbaa !17
  %38 = icmp eq i32 %37, -98
  br i1 %38, label %39, label %40

39:                                               ; preds = %36
  call void @llvm.lifetime.start.p0(i64 1, ptr %12) #21
  store i8 0, ptr %12, align 1, !tbaa !24
  call void @_ZN2tl8expectedIb11lief_errorsEC2IbTnPNSt9enable_ifIXsr3std14is_convertibleIOT_bEE5valueEvE4typeELPv0ETnPNS4_IXaaaaaasr3std16is_constructibleIbS6_EE5valuentsr3std7is_sameINSt5decayIS5_E4typeENS_10in_place_tEEE5valuentsr3std7is_sameIS2_SD_EE5valuentsr3std7is_sameINS_10unexpectedIS1_EESD_EE5valueEvE4typeELSA_0EEES6_(ptr noundef nonnull align 4 dereferenceable(5) %3, ptr noundef nonnull align 1 dereferenceable(1) %12)
  call void @llvm.lifetime.end.p0(i64 1, ptr %12) #21
  store i32 1, ptr %11, align 4
  br label %47

40:                                               ; preds = %36
  %41 = load i32, ptr %9, align 4, !tbaa !17
  %42 = icmp ne i32 %41, 0
  br i1 %42, label %43, label %46

43:                                               ; preds = %40
  call void @llvm.lifetime.start.p0(i64 4, ptr %13) #21
  %44 = call i32 @_Z15make_error_code11lief_errors(i32 noundef 1)
  %45 = getelementptr inbounds nuw %"class.tl::unexpected", ptr %13, i32 0, i32 0
  store i32 %44, ptr %45, align 4
  call void @_ZN2tl8expectedIb11lief_errorsEC2IS1_TnPNSt9enable_ifIXsr3std16is_constructibleIS1_OT_EE5valueEvE4typeELPv0ETnPNS4_IXsr3std14is_convertibleIS6_S1_EE5valueEvE4typeELSA_0EEEONS_10unexpectedIS5_EE(ptr noundef nonnull align 4 dereferenceable(5) %3, ptr noundef nonnull align 4 dereferenceable(4) %13) #21
  call void @llvm.lifetime.end.p0(i64 4, ptr %13) #21
  store i32 1, ptr %11, align 4
  br label %47

46:                                               ; preds = %40
  call void @llvm.lifetime.start.p0(i64 1, ptr %14) #21
  store i8 1, ptr %14, align 1, !tbaa !24
  call void @_ZN2tl8expectedIb11lief_errorsEC2IbTnPNSt9enable_ifIXsr3std14is_convertibleIOT_bEE5valueEvE4typeELPv0ETnPNS4_IXaaaaaasr3std16is_constructibleIbS6_EE5valuentsr3std7is_sameINSt5decayIS5_E4typeENS_10in_place_tEEE5valuentsr3std7is_sameIS2_SD_EE5valuentsr3std7is_sameINS_10unexpectedIS1_EESD_EE5valueEvE4typeELSA_0EEES6_(ptr noundef nonnull align 4 dereferenceable(5) %3, ptr noundef nonnull align 1 dereferenceable(1) %14)
  call void @llvm.lifetime.end.p0(i64 1, ptr %14) #21
  store i32 1, ptr %11, align 4
  br label %47

47:                                               ; preds = %46, %43, %39, %33
  call void @llvm.lifetime.end.p0(i64 4, ptr %9) #21
  call void @llvm.lifetime.end.p0(i64 8, ptr %8) #21
  call void @llvm.lifetime.end.p0(i64 8, ptr %7) #21
  call void @llvm.lifetime.end.p0(i64 8, ptr %6) #21
  %48 = load i64, ptr %3, align 4
  ret i64 %48
}