; Function Attrs: mustprogress nounwind uwtable
define hidden range(i64 0, 4294967304) i64 @_ZN4LIEF10ASN1Reader6is_tagEi(ptr noundef nonnull readonly align 8 captures(none) dereferenceable(8) %0, i32 noundef %1) local_unnamed_addr #1 align 2 {
  %3 = alloca i64, align 8
  %4 = alloca ptr, align 8
  call void @llvm.lifetime.start.p0(i64 8, ptr nonnull %3) #22
  store i64 0, ptr %3, align 8, !tbaa !3
  call void @llvm.lifetime.start.p0(i64 8, ptr nonnull %4) #22
  %5 = load ptr, ptr %0, align 8, !tbaa !7
  %6 = load ptr, ptr %5, align 8, !tbaa !11
  %7 = getelementptr inbounds nuw i8, ptr %6, i64 56
  %8 = load ptr, ptr %7, align 8
  %9 = tail call noundef ptr %8(ptr noundef nonnull align 8 dereferenceable(24) %5) #22
  store ptr %9, ptr %4, align 8, !tbaa !13
  %10 = load ptr, ptr %0, align 8, !tbaa !7
  %11 = load ptr, ptr %10, align 8, !tbaa !11
  %12 = getelementptr inbounds nuw i8, ptr %11, i64 64
  %13 = load ptr, ptr %12, align 8
  %14 = tail call noundef ptr %13(ptr noundef nonnull align 8 dereferenceable(24) %10) #22
  %15 = call i32 @mbedtls_asn1_get_tag(ptr noundef nonnull %4, ptr noundef %14, ptr noundef nonnull %3, i32 noundef %1) #22
  switch i32 %15, label %17 [
    i32 -96, label %19
    i32 -98, label %16
    i32 0, label %18
  ]

16:                                               ; preds = %2
  br label %19

17:                                               ; preds = %2
  br label %19

18:                                               ; preds = %2
  br label %19

19:                                               ; preds = %2, %18, %17, %16
  %.sroa.5.0 = phi i64 [ 0, %17 ], [ 4294967296, %18 ], [ 4294967296, %16 ], [ 0, %2 ]
  %.sroa.07.sroa.0.0 = phi i64 [ 1, %17 ], [ 1, %18 ], [ 0, %16 ], [ 7, %2 ]
  call void @llvm.lifetime.end.p0(i64 8, ptr nonnull %4) #22
  call void @llvm.lifetime.end.p0(i64 8, ptr nonnull %3) #22
  %.sroa.07.0.insert.insert = or disjoint i64 %.sroa.07.sroa.0.0, %.sroa.5.0
  ret i64 %.sroa.07.0.insert.insert
}